; Function Attrs: nounwind uwtable
define range(i32 0, 2) i32 @SHA256_Final(ptr noundef writeonly captures(none) %0, ptr noundef %1) local_unnamed_addr #2 {
  %3 = getelementptr inbounds nuw i8, ptr %1, i64 40
  %4 = getelementptr inbounds nuw i8, ptr %1, i64 104
  %5 = load i32, ptr %4, align 4, !tbaa !11
  %6 = zext i32 %5 to i64
  %7 = getelementptr inbounds nuw i8, ptr %3, i64 %6
  store i8 -128, ptr %7, align 1, !tbaa !12
  %8 = add nuw nsw i64 %6, 1
  %9 = icmp ugt i32 %5, 55
  br i1 %9, label %10, label %13

10:                                               ; preds = %2
  %11 = getelementptr inbounds nuw i8, ptr %3, i64 %8
  %12 = sub nsw i64 63, %6
  tail call void @llvm.memset.p0.i64(ptr nonnull align 1 %11, i8 0, i64 %12, i1 false)
  tail call void @sha256_block_data_order(ptr noundef nonnull %1, ptr noundef nonnull %3, i64 noundef 1) #5
  br label %13

13:                                               ; preds = %10, %2
  %.089 = phi i64 [ 0, %10 ], [ %8, %2 ]
  %14 = getelementptr inbounds nuw i8, ptr %3, i64 %.089
  %15 = sub nuw nsw i64 56, %.089
  tail call void @llvm.memset.p0.i64(ptr nonnull align 1 %14, i8 0, i64 %15, i1 false)
  %16 = getelementptr inbounds nuw i8, ptr %1, i64 96
  %17 = getelementptr inbounds nuw i8, ptr %1, i64 36
  %18 = load i32, ptr %17, align 4, !tbaa !10
  %19 = lshr i32 %18, 24
  %20 = trunc nuw i32 %19 to i8
  %21 = getelementptr inbounds nuw i8, ptr %1, i64 97
  store i8 %20, ptr %16, align 1, !tbaa !12
  %22 = lshr i32 %18, 16
  %23 = trunc i32 %22 to i8
  %24 = getelementptr inbounds nuw i8, ptr %1, i64 98
  store i8 %23, ptr %21, align 1, !tbaa !12
  %25 = lshr i32 %18, 8
  %26 = trunc i32 %25 to i8
  %27 = getelementptr inbounds nuw i8, ptr %1, i64 99
  store i8 %26, ptr %24, align 1, !tbaa !12
  %28 = trunc i32 %18 to i8
  %29 = getelementptr inbounds nuw i8, ptr %1, i64 100
  store i8 %28, ptr %27, align 1, !tbaa !12
  %30 = getelementptr inbounds nuw i8, ptr %1, i64 32
  %31 = load i32, ptr %30, align 4, !tbaa !9
  %32 = lshr i32 %31, 24
  %33 = trunc nuw i32 %32 to i8
  %34 = getelementptr inbounds nuw i8, ptr %1, i64 101
  store i8 %33, ptr %29, align 1, !tbaa !12
  %35 = lshr i32 %31, 16
  %36 = trunc i32 %35 to i8
  %37 = getelementptr inbounds nuw i8, ptr %1, i64 102
  store i8 %36, ptr %34, align 1, !tbaa !12
  %38 = lshr i32 %31, 8
  %39 = trunc i32 %38 to i8
  %40 = getelementptr inbounds nuw i8, ptr %1, i64 103
  store i8 %39, ptr %37, align 1, !tbaa !12
  %41 = trunc i32 %31 to i8
  store i8 %41, ptr %40, align 1, !tbaa !12
  tail call void @sha256_block_data_order(ptr noundef nonnull %1, ptr noundef nonnull %3, i64 noundef 1) #5
  store i32 0, ptr %4, align 4, !tbaa !11
  tail call void @OPENSSL_cleanse(ptr noundef nonnull %3, i64 noundef 64) #5
  %42 = getelementptr inbounds nuw i8, ptr %1, i64 108
  %43 = load i32, ptr %42, align 4, !tbaa !7
  switch i32 %43, label %83 [
    i32 24, label %.preheader99
    i32 28, label %.preheader101
    i32 32, label %.preheader103
  ]

.preheader99:                                     ; preds = %13, %.preheader99
  %indvars.iv121 = phi i64 [ %indvars.iv.next122, %.preheader99 ], [ 0, %13 ]
  %.092109 = phi ptr [ %56, %.preheader99 ], [ %0, %13 ]
  %44 = getelementptr inbounds nuw [8 x i32], ptr %1, i64 0, i64 %indvars.iv121
  %45 = load i32, ptr %44, align 4, !tbaa !3
  %46 = lshr i32 %45, 24
  %47 = trunc nuw i32 %46 to i8
  %48 = getelementptr inbounds nuw i8, ptr %.092109, i64 1
  store i8 %47, ptr %.092109, align 1, !tbaa !12
  %49 = lshr i32 %45, 16
  %50 = trunc i32 %49 to i8
  %51 = getelementptr inbounds nuw i8, ptr %.092109, i64 2
  store i8 %50, ptr %48, align 1, !tbaa !12
  %52 = lshr i32 %45, 8
  %53 = trunc i32 %52 to i8
  %54 = getelementptr inbounds nuw i8, ptr %.092109, i64 3
  store i8 %53, ptr %51, align 1, !tbaa !12
  %55 = trunc i32 %45 to i8
  %56 = getelementptr inbounds nuw i8, ptr %.092109, i64 4
  store i8 %55, ptr %54, align 1, !tbaa !12
  %indvars.iv.next122 = add nuw nsw i64 %indvars.iv121, 1
  %exitcond124.not = icmp eq i64 %indvars.iv.next122, 6
  br i1 %exitcond124.not, label %.loopexit, label %.preheader99, !llvm.loop !13

.preheader101:                                    ; preds = %13, %.preheader101
  %indvars.iv117 = phi i64 [ %indvars.iv.next118, %.preheader101 ], [ 0, %13 ]
  %.193107 = phi ptr [ %69, %.preheader101 ], [ %0, %13 ]
  %57 = getelementptr inbounds nuw [8 x i32], ptr %1, i64 0, i64 %indvars.iv117
  %58 = load i32, ptr %57, align 4, !tbaa !3
  %59 = lshr i32 %58, 24
  %60 = trunc nuw i32 %59 to i8
  %61 = getelementptr inbounds nuw i8, ptr %.193107, i64 1
  store i8 %60, ptr %.193107, align 1, !tbaa !12
  %62 = lshr i32 %58, 16
  %63 = trunc i32 %62 to i8
  %64 = getelementptr inbounds nuw i8, ptr %.193107, i64 2
  store i8 %63, ptr %61, align 1, !tbaa !12
  %65 = lshr i32 %58, 8
  %66 = trunc i32 %65 to i8
  %67 = getelementptr inbounds nuw i8, ptr %.193107, i64 3
  store i8 %66, ptr %64, align 1, !tbaa !12
  %68 = trunc i32 %58 to i8
  %69 = getelementptr inbounds nuw i8, ptr %.193107, i64 4
  store i8 %68, ptr %67, align 1, !tbaa !12
  %indvars.iv.next118 = add nuw nsw i64 %indvars.iv117, 1
  %exitcond120.not = icmp eq i64 %indvars.iv.next118, 7
  br i1 %exitcond120.not, label %.loopexit, label %.preheader101, !llvm.loop !15

.preheader103:                                    ; preds = %13, %.preheader103
  %indvars.iv = phi i64 [ %indvars.iv.next, %.preheader103 ], [ 0, %13 ]
  %.294105 = phi ptr [ %82, %.preheader103 ], [ %0, %13 ]
  %70 = getelementptr inbounds nuw [8 x i32], ptr %1, i64 0, i64 %indvars.iv
  %71 = load i32, ptr %70, align 4, !tbaa !3
  %72 = lshr i32 %71, 24
  %73 = trunc nuw i32 %72 to i8
  %74 = getelementptr inbounds nuw i8, ptr %.294105, i64 1
  store i8 %73, ptr %.294105, align 1, !tbaa !12
  %75 = lshr i32 %71, 16
  %76 = trunc i32 %75 to i8
  %77 = getelementptr inbounds nuw i8, ptr %.294105, i64 2
  store i8 %76, ptr %74, align 1, !tbaa !12
  %78 = lshr i32 %71, 8
  %79 = trunc i32 %78 to i8
  %80 = getelementptr inbounds nuw i8, ptr %.294105, i64 3
  store i8 %79, ptr %77, align 1, !tbaa !12
  %81 = trunc i32 %71 to i8
  %82 = getelementptr inbounds nuw i8, ptr %.294105, i64 4
  store i8 %81, ptr %80, align 1, !tbaa !12
  %indvars.iv.next = add nuw nsw i64 %indvars.iv, 1
  %exitcond.not = icmp eq i64 %indvars.iv.next, 8
  br i1 %exitcond.not, label %.loopexit, label %.preheader103, !llvm.loop !16

83:                                               ; preds = %13
  %84 = icmp ugt i32 %43, 32
  br i1 %84, label %.loopexit, label %.preheader

.preheader:                                       ; preds = %83
  %.not = icmp samesign ult i32 %43, 4
  br i1 %.not, label %.loopexit, label %.lr.ph

.lr.ph:                                           ; preds = %.preheader, %.lr.ph
  %indvars.iv125 = phi i64 [ %indvars.iv.next126, %.lr.ph ], [ 0, %.preheader ]
  %.395111 = phi ptr [ %97, %.lr.ph ], [ %0, %.preheader ]
  %85 = getelementptr inbounds nuw [8 x i32], ptr %1, i64 0, i64 %indvars.iv125
  %86 = load i32, ptr %85, align 4, !tbaa !3
  %87 = lshr i32 %86, 24
  %88 = trunc nuw i32 %87 to i8
  %89 = getelementptr inbounds nuw i8, ptr %.395111, i64 1
  store i8 %88, ptr %.395111, align 1, !tbaa !12
  %90 = lshr i32 %86, 16
  %91 = trunc i32 %90 to i8
  %92 = getelementptr inbounds nuw i8, ptr %.395111, i64 2
  store i8 %91, ptr %89, align 1, !tbaa !12
  %93 = lshr i32 %86, 8
  %94 = trunc i32 %93 to i8
  %95 = getelementptr inbounds nuw i8, ptr %.395111, i64 3
  store i8 %94, ptr %92, align 1, !tbaa !12
  %96 = trunc i32 %86 to i8
  %97 = getelementptr inbounds nuw i8, ptr %.395111, i64 4
  store i8 %96, ptr %95, align 1, !tbaa !12
  %indvars.iv.next126 = add nuw nsw i64 %indvars.iv125, 1
  %98 = load i32, ptr %42, align 4, !tbaa !7
  %99 = lshr i32 %98, 2
  %100 = zext nneg i32 %99 to i64
  %101 = icmp samesign ult i64 %indvars.iv.next126, %100
  br i1 %101, label %.lr.ph, label %.loopexit, !llvm.loop !17

.loopexit:                                        ; preds = %.preheader103, %.preheader101, %.preheader99, %.lr.ph, %.preheader, %83
  %102 = phi i32 [ 0, %83 ], [ 1, %.preheader ], [ 1, %.lr.ph ], [ 1, %.preheader99 ], [ 1, %.preheader101 ], [ 1, %.preheader103 ]
  ret i32 %102
}